
a.out:     file format elf64-littleriscv


Disassembly of section .text:

0000000080000000 <main>:
    80000000:	10000293          	li	t0,256
    80000004:	30229073          	csrw	medeleg,t0
    80000008:	00000297          	auipc	t0,0x0
    8000000c:	04828293          	addi	t0,t0,72 # 80000050 <mtrap_handler>
    80000010:	30529073          	csrw	mtvec,t0
    80000014:	00000297          	auipc	t0,0x0
    80000018:	06c28293          	addi	t0,t0,108 # 80000080 <strap_handler>
    8000001c:	10529073          	csrw	stvec,t0
    80000020:	00000297          	auipc	t0,0x0
    80000024:	06828293          	addi	t0,t0,104 # 80000088 <ucode>
    80000028:	34129073          	csrw	mepc,t0
    8000002c:	30002373          	csrr	t1,mstatus
    80000030:	6389                	lui	t2,0x2
    80000032:	8003839b          	addiw	t2,t2,-2048
    80000036:	fff3c393          	not	t2,t2
    8000003a:	00737333          	and	t1,t1,t2
    8000003e:	30031073          	csrw	mstatus,t1
    80000042:	30200073          	mret
    80000046:	00000013          	nop
    8000004a:	00000013          	nop
    8000004e:	0001                	nop

0000000080000050 <mtrap_handler>:
    80000050:	02c585b3          	mul	a1,a1,a2
    80000054:	4501                	li	a0,0
    80000056:	00000297          	auipc	t0,0x0
    8000005a:	02a28293          	addi	t0,t0,42 # 80000080 <strap_handler>
    8000005e:	34129073          	csrw	mepc,t0
    80000062:	30200073          	mret

0000000080000066 <scode>:
    80000066:	00000297          	auipc	t0,0x0
    8000006a:	02c28293          	addi	t0,t0,44 # 80000092 <ucode1>
    8000006e:	14129073          	csrw	sepc,t0
    80000072:	10200073          	sret
    80000076:	00000013          	nop
    8000007a:	00000013          	nop
    8000007e:	0001                	nop

0000000080000080 <strap_handler>:
    80000080:	c119                	beqz	a0,80000086 <ucode1_transition>
    80000082:	00000073          	ecall

0000000080000086 <ucode1_transition>:
    80000086:	b7c5                	j	80000066 <scode>

0000000080000088 <ucode>:
    80000088:	4585                	li	a1,1
    8000008a:	4609                	li	a2,2
    8000008c:	4501                	li	a0,0
    8000008e:	00000073          	ecall

0000000080000092 <ucode1>:
    80000092:	95b2                	add	a1,a1,a2
    80000094:	4505                	li	a0,1
    80000096:	00000073          	ecall
	...
