
a.out:     file format elf64-littleriscv


Disassembly of section .text:

0000000080000000 <_start>:
    80000000:	00010117          	auipc	sp,0x10
    80000004:	00010113          	mv	sp,sp
    80000008:	1cc000ef          	jal	ra,800001d4 <setup_processes>
    8000000c:	82aa                	mv	t0,a0
    8000000e:	832e                	mv	t1,a1
    80000010:	34129073          	csrw	mepc,t0
    80000014:	811a                	mv	sp,t1
    80000016:	00000297          	auipc	t0,0x0
    8000001a:	04a28293          	addi	t0,t0,74 # 80000060 <mtrap_handler>
    8000001e:	30529073          	csrw	mtvec,t0
    80000022:	020042b7          	lui	t0,0x2004
    80000026:	10000313          	li	t1,256
    8000002a:	0062b023          	sd	t1,0(t0) # 2004000 <_start-0x7dffc000>
    8000002e:	08000293          	li	t0,128
    80000032:	3042a073          	csrs	mie,t0
    80000036:	42a1                	li	t0,8
    80000038:	3002a073          	csrs	mstatus,t0
    8000003c:	30200073          	mret

0000000080000040 <increment_timer>:
    80000040:	020042b7          	lui	t0,0x2004
    80000044:	0002b303          	ld	t1,0(t0) # 2004000 <_start-0x7dffc000>
    80000048:	10030313          	addi	t1,t1,256
    8000004c:	0062b023          	sd	t1,0(t0)
    80000050:	8082                	ret
    80000052:	0001                	nop
    80000054:	00000013          	nop
    80000058:	00000013          	nop
    8000005c:	00000013          	nop

0000000080000060 <mtrap_handler>:
    80000060:	838a                	mv	t2,sp
    80000062:	7111                	addi	sp,sp,-256
    80000064:	e006                	sd	ra,0(sp)
    80000066:	e80e                	sd	gp,16(sp)
    80000068:	ec12                	sd	tp,24(sp)
    8000006a:	f016                	sd	t0,32(sp)
    8000006c:	f41a                	sd	t1,40(sp)
    8000006e:	f81e                	sd	t2,48(sp)
    80000070:	fc22                	sd	s0,56(sp)
    80000072:	e0a6                	sd	s1,64(sp)
    80000074:	e4aa                	sd	a0,72(sp)
    80000076:	e8ae                	sd	a1,80(sp)
    80000078:	ecb2                	sd	a2,88(sp)
    8000007a:	f0b6                	sd	a3,96(sp)
    8000007c:	f4ba                	sd	a4,104(sp)
    8000007e:	f8be                	sd	a5,112(sp)
    80000080:	fcc2                	sd	a6,120(sp)
    80000082:	e146                	sd	a7,128(sp)
    80000084:	e54a                	sd	s2,136(sp)
    80000086:	e94e                	sd	s3,144(sp)
    80000088:	ed52                	sd	s4,152(sp)
    8000008a:	f156                	sd	s5,160(sp)
    8000008c:	f55a                	sd	s6,168(sp)
    8000008e:	f95e                	sd	s7,176(sp)
    80000090:	fd62                	sd	s8,184(sp)
    80000092:	e1e6                	sd	s9,192(sp)
    80000094:	e5ea                	sd	s10,200(sp)
    80000096:	e9ee                	sd	s11,208(sp)
    80000098:	edf2                	sd	t3,216(sp)
    8000009a:	f1f6                	sd	t4,224(sp)
    8000009c:	f5fa                	sd	t5,232(sp)
    8000009e:	f9fe                	sd	t6,240(sp)
    800000a0:	34102573          	csrr	a0,mepc
    800000a4:	859e                	mv	a1,t2
    800000a6:	f9bff0ef          	jal	ra,80000040 <increment_timer>
    800000aa:	00010117          	auipc	sp,0x10
    800000ae:	f5610113          	addi	sp,sp,-170 # 80010000 <_machine_stack>
    800000b2:	24e000ef          	jal	ra,80000300 <switch_processes>
    800000b6:	812e                	mv	sp,a1
    800000b8:	34151073          	csrw	mepc,a0
    800000bc:	6082                	ld	ra,0(sp)
    800000be:	61c2                	ld	gp,16(sp)
    800000c0:	6262                	ld	tp,24(sp)
    800000c2:	7282                	ld	t0,32(sp)
    800000c4:	7322                	ld	t1,40(sp)
    800000c6:	73c2                	ld	t2,48(sp)
    800000c8:	7462                	ld	s0,56(sp)
    800000ca:	6486                	ld	s1,64(sp)
    800000cc:	6526                	ld	a0,72(sp)
    800000ce:	65c6                	ld	a1,80(sp)
    800000d0:	6666                	ld	a2,88(sp)
    800000d2:	7686                	ld	a3,96(sp)
    800000d4:	7726                	ld	a4,104(sp)
    800000d6:	77c6                	ld	a5,112(sp)
    800000d8:	7866                	ld	a6,120(sp)
    800000da:	688a                	ld	a7,128(sp)
    800000dc:	692a                	ld	s2,136(sp)
    800000de:	69ca                	ld	s3,144(sp)
    800000e0:	6a6a                	ld	s4,152(sp)
    800000e2:	7a8a                	ld	s5,160(sp)
    800000e4:	7b2a                	ld	s6,168(sp)
    800000e6:	7bca                	ld	s7,176(sp)
    800000e8:	7c6a                	ld	s8,184(sp)
    800000ea:	6c8e                	ld	s9,192(sp)
    800000ec:	6d2e                	ld	s10,200(sp)
    800000ee:	6dce                	ld	s11,208(sp)
    800000f0:	6e6e                	ld	t3,216(sp)
    800000f2:	7e8e                	ld	t4,224(sp)
    800000f4:	7f2e                	ld	t5,232(sp)
    800000f6:	7fce                	ld	t6,240(sp)
    800000f8:	6111                	addi	sp,sp,256
    800000fa:	30200073          	mret
    800000fe:	0001                	nop

0000000080000100 <ucode_checker>:
    80000100:	44ad                	li	s1,11
    80000102:	492d                	li	s2,11
    80000104:	49ad                	li	s3,11
    80000106:	4a2d                	li	s4,11
    80000108:	4aad                	li	s5,11
    8000010a:	4b2d                	li	s6,11
    8000010c:	4bad                	li	s7,11
    8000010e:	4c2d                	li	s8,11
    80000110:	4cad                	li	s9,11
    80000112:	4d2d                	li	s10,11
    80000114:	4dad                	li	s11,11
    80000116:	42ad                	li	t0,11
    80000118:	432d                	li	t1,11
    8000011a:	43ad                	li	t2,11
    8000011c:	4e2d                	li	t3,11
    8000011e:	4ead                	li	t4,11
    80000120:	4f2d                	li	t5,11
    80000122:	4fad                	li	t6,11
    80000124:	452d                	li	a0,11
    80000126:	45ad                	li	a1,11
    80000128:	462d                	li	a2,11
    8000012a:	46ad                	li	a3,11
    8000012c:	472d                	li	a4,11
    8000012e:	47ad                	li	a5,11
    80000130:	482d                	li	a6,11
    80000132:	48ad                	li	a7,11

0000000080000134 <ucode_loop>:
    80000134:	07249563          	bne	s1,s2,8000019e <register_flag>
    80000138:	07391363          	bne	s2,s3,8000019e <register_flag>
    8000013c:	07499163          	bne	s3,s4,8000019e <register_flag>
    80000140:	055a1f63          	bne	s4,s5,8000019e <register_flag>
    80000144:	056a9d63          	bne	s5,s6,8000019e <register_flag>
    80000148:	057b1b63          	bne	s6,s7,8000019e <register_flag>
    8000014c:	058b9963          	bne	s7,s8,8000019e <register_flag>
    80000150:	059c1763          	bne	s8,s9,8000019e <register_flag>
    80000154:	05ac9563          	bne	s9,s10,8000019e <register_flag>
    80000158:	05bd1363          	bne	s10,s11,8000019e <register_flag>
    8000015c:	045d9163          	bne	s11,t0,8000019e <register_flag>
    80000160:	02629f63          	bne	t0,t1,8000019e <register_flag>
    80000164:	02731d63          	bne	t1,t2,8000019e <register_flag>
    80000168:	03c39b63          	bne	t2,t3,8000019e <register_flag>
    8000016c:	03de1963          	bne	t3,t4,8000019e <register_flag>
    80000170:	03ee9763          	bne	t4,t5,8000019e <register_flag>
    80000174:	03ff1563          	bne	t5,t6,8000019e <register_flag>
    80000178:	02af9363          	bne	t6,a0,8000019e <register_flag>
    8000017c:	02b51163          	bne	a0,a1,8000019e <register_flag>
    80000180:	00c59f63          	bne	a1,a2,8000019e <register_flag>
    80000184:	00d61d63          	bne	a2,a3,8000019e <register_flag>
    80000188:	00e69b63          	bne	a3,a4,8000019e <register_flag>
    8000018c:	00f71963          	bne	a4,a5,8000019e <register_flag>
    80000190:	01079763          	bne	a5,a6,8000019e <register_flag>
    80000194:	01181563          	bne	a6,a7,8000019e <register_flag>
    80000198:	00989363          	bne	a7,s1,8000019e <register_flag>
    8000019c:	bf61                	j	80000134 <ucode_loop>

000000008000019e <register_flag>:
    8000019e:	00011297          	auipc	t0,0x11
    800001a2:	e6628293          	addi	t0,t0,-410 # 80011004 <flag_var>
    800001a6:	4305                	li	t1,1
    800001a8:	0062a023          	sw	t1,0(t0)
    800001ac:	bf91                	j	80000100 <ucode_checker>

00000000800001ae <ucode_counter>:
    800001ae:	00011297          	auipc	t0,0x11
    800001b2:	e5228293          	addi	t0,t0,-430 # 80011000 <count_var>
    800001b6:	0002a303          	lw	t1,0(t0)
    800001ba:	0305                	addi	t1,t1,1
    800001bc:	0062a023          	sw	t1,0(t0)
    800001c0:	b7fd                	j	800001ae <ucode_counter>

00000000800001c2 <ucode_fib>:
    800001c2:	452d                	li	a0,11
    800001c4:	230000ef          	jal	ra,800003f4 <fibonacci_helper>
    800001c8:	bfed                	j	800001c2 <ucode_fib>
	...

00000000800001d4 <setup_processes>:
    800001d4:	7139                	addi	sp,sp,-64
    800001d6:	fc22                	sd	s0,56(sp)
    800001d8:	0080                	addi	s0,sp,64
    800001da:	00012797          	auipc	a5,0x12
    800001de:	67678793          	addi	a5,a5,1654 # 80012850 <_stack_top>
    800001e2:	fef43023          	sd	a5,-32(s0)
    800001e6:	fe042623          	sw	zero,-20(s0)
    800001ea:	a08d                	j	8000024c <setup_processes+0x78>
    800001ec:	fec42783          	lw	a5,-20(s0)
    800001f0:	2785                	addiw	a5,a5,1
    800001f2:	2781                	sext.w	a5,a5
    800001f4:	85be                	mv	a1,a5
    800001f6:	00011717          	auipc	a4,0x11
    800001fa:	e4a70713          	addi	a4,a4,-438 # 80011040 <process_table>
    800001fe:	fec42783          	lw	a5,-20(s0)
    80000202:	0796                	slli	a5,a5,0x5
    80000204:	97ba                	add	a5,a5,a4
    80000206:	e38c                	sd	a1,0(a5)
    80000208:	00011717          	auipc	a4,0x11
    8000020c:	e3870713          	addi	a4,a4,-456 # 80011040 <process_table>
    80000210:	fec42783          	lw	a5,-20(s0)
    80000214:	0796                	slli	a5,a5,0x5
    80000216:	97ba                	add	a5,a5,a4
    80000218:	0007b423          	sd	zero,8(a5)
    8000021c:	fec42783          	lw	a5,-20(s0)
    80000220:	00a7979b          	slliw	a5,a5,0xa
    80000224:	2781                	sext.w	a5,a5
    80000226:	873e                	mv	a4,a5
    80000228:	fe043783          	ld	a5,-32(s0)
    8000022c:	40e78733          	sub	a4,a5,a4
    80000230:	00011597          	auipc	a1,0x11
    80000234:	e1058593          	addi	a1,a1,-496 # 80011040 <process_table>
    80000238:	fec42783          	lw	a5,-20(s0)
    8000023c:	0796                	slli	a5,a5,0x5
    8000023e:	97ae                	add	a5,a5,a1
    80000240:	ef98                	sd	a4,24(a5)
    80000242:	fec42783          	lw	a5,-20(s0)
    80000246:	2785                	addiw	a5,a5,1
    80000248:	fef42623          	sw	a5,-20(s0)
    8000024c:	fec42783          	lw	a5,-20(s0)
    80000250:	0007871b          	sext.w	a4,a5
    80000254:	478d                	li	a5,3
    80000256:	f8e7dbe3          	bge	a5,a4,800001ec <setup_processes+0x18>
    8000025a:	00000717          	auipc	a4,0x0
    8000025e:	ea670713          	addi	a4,a4,-346 # 80000100 <ucode_checker>
    80000262:	00011797          	auipc	a5,0x11
    80000266:	dde78793          	addi	a5,a5,-546 # 80011040 <process_table>
    8000026a:	eb98                	sd	a4,16(a5)
    8000026c:	00000717          	auipc	a4,0x0
    80000270:	e9470713          	addi	a4,a4,-364 # 80000100 <ucode_checker>
    80000274:	00011797          	auipc	a5,0x11
    80000278:	dcc78793          	addi	a5,a5,-564 # 80011040 <process_table>
    8000027c:	fb98                	sd	a4,48(a5)
    8000027e:	00000717          	auipc	a4,0x0
    80000282:	f3070713          	addi	a4,a4,-208 # 800001ae <ucode_counter>
    80000286:	00011797          	auipc	a5,0x11
    8000028a:	dba78793          	addi	a5,a5,-582 # 80011040 <process_table>
    8000028e:	ebb8                	sd	a4,80(a5)
    80000290:	00000717          	auipc	a4,0x0
    80000294:	f3270713          	addi	a4,a4,-206 # 800001c2 <ucode_fib>
    80000298:	00011797          	auipc	a5,0x11
    8000029c:	da878793          	addi	a5,a5,-600 # 80011040 <process_table>
    800002a0:	fbb8                	sd	a4,112(a5)
    800002a2:	00011797          	auipc	a5,0x11
    800002a6:	d9e78793          	addi	a5,a5,-610 # 80011040 <process_table>
    800002aa:	4705                	li	a4,1
    800002ac:	e798                	sd	a4,8(a5)
    800002ae:	00011797          	auipc	a5,0x11
    800002b2:	59278793          	addi	a5,a5,1426 # 80011840 <current_process>
    800002b6:	0007a023          	sw	zero,0(a5)
    800002ba:	00011797          	auipc	a5,0x11
    800002be:	d8678793          	addi	a5,a5,-634 # 80011040 <process_table>
    800002c2:	6b9c                	ld	a5,16(a5)
    800002c4:	fcf43023          	sd	a5,-64(s0)
    800002c8:	00011797          	auipc	a5,0x11
    800002cc:	d7878793          	addi	a5,a5,-648 # 80011040 <process_table>
    800002d0:	6f9c                	ld	a5,24(a5)
    800002d2:	fcf43423          	sd	a5,-56(s0)
    800002d6:	fc043783          	ld	a5,-64(s0)
    800002da:	fcf43823          	sd	a5,-48(s0)
    800002de:	fc843783          	ld	a5,-56(s0)
    800002e2:	fcf43c23          	sd	a5,-40(s0)
    800002e6:	fd043703          	ld	a4,-48(s0)
    800002ea:	fd843783          	ld	a5,-40(s0)
    800002ee:	863a                	mv	a2,a4
    800002f0:	86be                	mv	a3,a5
    800002f2:	8732                	mv	a4,a2
    800002f4:	87b6                	mv	a5,a3
    800002f6:	853a                	mv	a0,a4
    800002f8:	85be                	mv	a1,a5
    800002fa:	7462                	ld	s0,56(sp)
    800002fc:	6121                	addi	sp,sp,64
    800002fe:	8082                	ret

0000000080000300 <switch_processes>:
    80000300:	715d                	addi	sp,sp,-80
    80000302:	e4a2                	sd	s0,72(sp)
    80000304:	0880                	addi	s0,sp,80
    80000306:	faa43c23          	sd	a0,-72(s0)
    8000030a:	fab43823          	sd	a1,-80(s0)
    8000030e:	00011797          	auipc	a5,0x11
    80000312:	53278793          	addi	a5,a5,1330 # 80011840 <current_process>
    80000316:	439c                	lw	a5,0(a5)
    80000318:	2781                	sext.w	a5,a5
    8000031a:	fef42623          	sw	a5,-20(s0)
    8000031e:	00011717          	auipc	a4,0x11
    80000322:	d2270713          	addi	a4,a4,-734 # 80011040 <process_table>
    80000326:	fec42783          	lw	a5,-20(s0)
    8000032a:	0796                	slli	a5,a5,0x5
    8000032c:	97ba                	add	a5,a5,a4
    8000032e:	fb843703          	ld	a4,-72(s0)
    80000332:	eb98                	sd	a4,16(a5)
    80000334:	00011717          	auipc	a4,0x11
    80000338:	d0c70713          	addi	a4,a4,-756 # 80011040 <process_table>
    8000033c:	fec42783          	lw	a5,-20(s0)
    80000340:	0796                	slli	a5,a5,0x5
    80000342:	97ba                	add	a5,a5,a4
    80000344:	fb043703          	ld	a4,-80(s0)
    80000348:	ef98                	sd	a4,24(a5)
    8000034a:	00011717          	auipc	a4,0x11
    8000034e:	cf670713          	addi	a4,a4,-778 # 80011040 <process_table>
    80000352:	fec42783          	lw	a5,-20(s0)
    80000356:	0796                	slli	a5,a5,0x5
    80000358:	97ba                	add	a5,a5,a4
    8000035a:	0007b423          	sd	zero,8(a5)
    8000035e:	fec42783          	lw	a5,-20(s0)
    80000362:	2785                	addiw	a5,a5,1
    80000364:	2781                	sext.w	a5,a5
    80000366:	873e                	mv	a4,a5
    80000368:	41f7579b          	sraiw	a5,a4,0x1f
    8000036c:	01e7d79b          	srliw	a5,a5,0x1e
    80000370:	9f3d                	addw	a4,a4,a5
    80000372:	8b0d                	andi	a4,a4,3
    80000374:	40f707bb          	subw	a5,a4,a5
    80000378:	fef42423          	sw	a5,-24(s0)
    8000037c:	00011717          	auipc	a4,0x11
    80000380:	cc470713          	addi	a4,a4,-828 # 80011040 <process_table>
    80000384:	fe842783          	lw	a5,-24(s0)
    80000388:	0796                	slli	a5,a5,0x5
    8000038a:	97ba                	add	a5,a5,a4
    8000038c:	4705                	li	a4,1
    8000038e:	e798                	sd	a4,8(a5)
    80000390:	fe842703          	lw	a4,-24(s0)
    80000394:	00011797          	auipc	a5,0x11
    80000398:	4ac78793          	addi	a5,a5,1196 # 80011840 <current_process>
    8000039c:	c398                	sw	a4,0(a5)
    8000039e:	00011717          	auipc	a4,0x11
    800003a2:	ca270713          	addi	a4,a4,-862 # 80011040 <process_table>
    800003a6:	fe842783          	lw	a5,-24(s0)
    800003aa:	0796                	slli	a5,a5,0x5
    800003ac:	97ba                	add	a5,a5,a4
    800003ae:	6b9c                	ld	a5,16(a5)
    800003b0:	fcf43423          	sd	a5,-56(s0)
    800003b4:	00011717          	auipc	a4,0x11
    800003b8:	c8c70713          	addi	a4,a4,-884 # 80011040 <process_table>
    800003bc:	fe842783          	lw	a5,-24(s0)
    800003c0:	0796                	slli	a5,a5,0x5
    800003c2:	97ba                	add	a5,a5,a4
    800003c4:	6f9c                	ld	a5,24(a5)
    800003c6:	fcf43823          	sd	a5,-48(s0)
    800003ca:	fc843783          	ld	a5,-56(s0)
    800003ce:	fcf43c23          	sd	a5,-40(s0)
    800003d2:	fd043783          	ld	a5,-48(s0)
    800003d6:	fef43023          	sd	a5,-32(s0)
    800003da:	fd843703          	ld	a4,-40(s0)
    800003de:	fe043783          	ld	a5,-32(s0)
    800003e2:	863a                	mv	a2,a4
    800003e4:	86be                	mv	a3,a5
    800003e6:	8732                	mv	a4,a2
    800003e8:	87b6                	mv	a5,a3
    800003ea:	853a                	mv	a0,a4
    800003ec:	85be                	mv	a1,a5
    800003ee:	6426                	ld	s0,72(sp)
    800003f0:	6161                	addi	sp,sp,80
    800003f2:	8082                	ret

00000000800003f4 <fibonacci_helper>:
    800003f4:	1101                	addi	sp,sp,-32
    800003f6:	ec06                	sd	ra,24(sp)
    800003f8:	e822                	sd	s0,16(sp)
    800003fa:	1000                	addi	s0,sp,32
    800003fc:	87aa                	mv	a5,a0
    800003fe:	fef42623          	sw	a5,-20(s0)
    80000402:	fec42783          	lw	a5,-20(s0)
    80000406:	2781                	sext.w	a5,a5
    80000408:	eb81                	bnez	a5,80000418 <fibonacci_helper+0x24>
    8000040a:	00011797          	auipc	a5,0x11
    8000040e:	c0678793          	addi	a5,a5,-1018 # 80011010 <fib_array>
    80000412:	0007a023          	sw	zero,0(a5)
    80000416:	a8bd                	j	80000494 <fibonacci_helper+0xa0>
    80000418:	fec42783          	lw	a5,-20(s0)
    8000041c:	0007871b          	sext.w	a4,a5
    80000420:	4785                	li	a5,1
    80000422:	00f71963          	bne	a4,a5,80000434 <fibonacci_helper+0x40>
    80000426:	00011797          	auipc	a5,0x11
    8000042a:	bea78793          	addi	a5,a5,-1046 # 80011010 <fib_array>
    8000042e:	4705                	li	a4,1
    80000430:	c3d8                	sw	a4,4(a5)
    80000432:	a08d                	j	80000494 <fibonacci_helper+0xa0>
    80000434:	fec42783          	lw	a5,-20(s0)
    80000438:	37fd                	addiw	a5,a5,-1
    8000043a:	2781                	sext.w	a5,a5
    8000043c:	853e                	mv	a0,a5
    8000043e:	fb7ff0ef          	jal	ra,800003f4 <fibonacci_helper>
    80000442:	fec42783          	lw	a5,-20(s0)
    80000446:	37f9                	addiw	a5,a5,-2
    80000448:	2781                	sext.w	a5,a5
    8000044a:	853e                	mv	a0,a5
    8000044c:	fa9ff0ef          	jal	ra,800003f4 <fibonacci_helper>
    80000450:	fec42783          	lw	a5,-20(s0)
    80000454:	37fd                	addiw	a5,a5,-1
    80000456:	2781                	sext.w	a5,a5
    80000458:	00011717          	auipc	a4,0x11
    8000045c:	bb870713          	addi	a4,a4,-1096 # 80011010 <fib_array>
    80000460:	078a                	slli	a5,a5,0x2
    80000462:	97ba                	add	a5,a5,a4
    80000464:	4398                	lw	a4,0(a5)
    80000466:	fec42783          	lw	a5,-20(s0)
    8000046a:	37f9                	addiw	a5,a5,-2
    8000046c:	2781                	sext.w	a5,a5
    8000046e:	00011697          	auipc	a3,0x11
    80000472:	ba268693          	addi	a3,a3,-1118 # 80011010 <fib_array>
    80000476:	078a                	slli	a5,a5,0x2
    80000478:	97b6                	add	a5,a5,a3
    8000047a:	439c                	lw	a5,0(a5)
    8000047c:	9fb9                	addw	a5,a5,a4
    8000047e:	0007871b          	sext.w	a4,a5
    80000482:	00011697          	auipc	a3,0x11
    80000486:	b8e68693          	addi	a3,a3,-1138 # 80011010 <fib_array>
    8000048a:	fec42783          	lw	a5,-20(s0)
    8000048e:	078a                	slli	a5,a5,0x2
    80000490:	97b6                	add	a5,a5,a3
    80000492:	c398                	sw	a4,0(a5)
    80000494:	60e2                	ld	ra,24(sp)
    80000496:	6442                	ld	s0,16(sp)
    80000498:	6105                	addi	sp,sp,32
    8000049a:	8082                	ret
