
output/matmul_rv32i.elf:     file format elf32-littleriscv

Contents of section .text:
 0000 17810000 13010100 97420000 93824220  .........B....B 
 0010 17430000 1303c31f 63f86200 23a00200  .C......c.b.#...
 0020 93824200 6ff05fff ef000028 6f000000  ..B.o._....(o...
 0030 130101fe 232e8100 13040102 93070500  ....#...........
 0040 a307f4fe b7c70000 0347f4fe 23a0e700  .........G..#...
 0050 13000000 0324c101 13010102 67800000  .....$......g...
 0060 130101fe 232e1100 232c8100 13040102  ....#...#,......
 0070 2326a4fe 6f00c001 8327c4fe 13871700  #&..o....'......
 0080 2326e4fe 83c70700 13850700 eff05ffa  #&............_.
 0090 8327c4fe 83c70700 e39007fe 13000000  .'..............
 00a0 13000000 8320c101 03248101 13010102  ..... ...$......
 00b0 67800000 130101fc 232e1102 232c8102  g.......#...#,..
 00c0 13040104 2326a4fc 232404fe 8327c4fc  ....#&..#$...'..
 00d0 63de0700 1305d002 eff09ff5 8327c4fc  c............'..
 00e0 b307f040 2326f4fe 6f00c000 8327c4fc  ...@#&..o....'..
 00f0 2326f4fe 8327c4fe 63980700 13050003  #&...'..c.......
 0100 eff01ff3 6f00000a 232204fe 6f00c008  ....o...#"..o...
 0110 b7470000 1387471e 832744fe 93972700  .G....G..'D...'.
 0120 b307f700 83a70700 232ef4fc 232004fe  ........#...# ..
 0130 6f000002 0327c4fe 8327c4fd b307f740  o....'...'.....@
 0140 2326f4fe 832704fe 93871700 2320f4fe  #&...'......# ..
 0150 0327c4fe 8327c4fd e37ef7fc 832704fe  .'...'...~...'..
 0160 63960700 832784fe 63820702 832704fe  c....'..c....'..
 0170 93f7f70f 93870703 93f7f70f 13850700  ................
 0180 eff01feb 93071000 2324f4fe 832744fe  ........#$...'D.
 0190 93871700 2322f4fe 032744fe 93079000  ....#"...'D.....
 01a0 e3d8e7f6 8320c103 03248103 13010104  ..... ...$......
 01b0 67800000 130101ff 23261100 23248100  g.......#&..#$..
 01c0 13040101 1305a000 eff09fe6 13000000  ................
 01d0 8320c100 03248100 13010101 67800000  . ...$......g...
 01e0 130101fd 23268102 13040103 232ea4fc  ....#&......#...
 01f0 232cb4fc 232604fe 0327c4fd 832784fd  #,..#&...'...'..
 0200 b347f700 93d7f701 93f7f70f 2320f4fe  .G..........# ..
 0210 8327c4fd 13d7f741 8327c4fd b347f700  .'.....A.'...G..
 0220 b387e740 2324f4fe 832784fd 13d7f741  ...@#$...'.....A
 0230 832784fd b347f700 b387e740 2322f4fe  .'...G.....@#"..
 0240 6f008003 832744fe 93f71700 638a0700  o....'D.....c...
 0250 0327c4fe 832784fe b307f700 2326f4fe  .'...'......#&..
 0260 832784fe 93971700 2324f4fe 832744fe  .'......#$...'D.
 0270 93d71700 2322f4fe 832744fe e39407fc  ....#"...'D.....
 0280 832704fe 63880700 8327c4fe b307f040  .'..c....'.....@
 0290 6f008000 8327c4fe 13850700 0324c102  o....'.......$..
 02a0 13010103 67800000 130101fe 232e1100  ....g.......#...
 02b0 232c8100 13040102 232604fe 232404fe  #,......#&..#$..
 02c0 232204fe 6f00000a b7470000 13870700  #"..o....G......
 02d0 832744fe b307f700 83870700 93860700  .'D.............
 02e0 b7470000 13870708 832744fe b307f700  .G.......'D.....
 02f0 83870700 93850700 13850600 eff05fee  .............._.
 0300 13070500 8327c4fe b387e700 2326f4fe  .....'......#&..
 0310 b7470000 13870700 832744fe b307f700  .G.......'D.....
 0320 83870700 93860700 b7470000 13870710  .........G......
 0330 832744fe b307f700 83870700 93850700  .'D.............
 0340 13850600 eff0dfe9 13070500 832784fe  .............'..
 0350 b387e700 2324f4fe 832744fe 93871700  ....#$...'D.....
 0360 2322f4fe 032744fe 9307f007 e3dee7f4  #"...'D.........
 0370 b7470000 13850718 eff09fce eff09fe3  .G..............
 0380 b7470000 1385c719 eff09fcd eff09fe2  .G..............
 0390 0325c4fe eff01fd2 eff0dfe1 b7470000  .%...........G..
 03a0 1385071c eff0dfcb eff0dfe0 032584fe  .............%..
 03b0 eff05fd0 eff01fe0 6f000000           .._.....o...    
Contents of section .data:
 4000 00010203 04050607 08090a0b 0c0d0e0f  ................
 4010 00010203 04050607 08090a0b 0c0d0e0f  ................
 4020 00010203 04050607 08090a0b 0c0d0e0f  ................
 4030 00010203 04050607 08090a0b 0c0d0e0f  ................
 4040 00000000 00000000 00000000 00000000  ................
 4050 00000000 00000000 00000000 00000000  ................
 4060 00000000 00000000 00000000 00000000  ................
 4070 00000000 00000000 00000000 00000000  ................
 4080 14141414 14141414 14141414 14141414  ................
 4090 14141414 14141414 14141414 14141414  ................
 40a0 14141414 14141414 14141414 14141414  ................
 40b0 14141414 14141414 14141414 14141414  ................
 40c0 14141414 14141414 14141414 14141414  ................
 40d0 14141414 14141414 14141414 14141414  ................
 40e0 14141414 14141414 14141414 14141414  ................
 40f0 14141414 14141414 14141414 14141414  ................
 4100 28282828 28282828 28282828 28282828  ((((((((((((((((
 4110 28282828 28282828 28282828 28282828  ((((((((((((((((
 4120 28282828 28282828 28282828 28282828  ((((((((((((((((
 4130 28282828 28282828 28282828 28282828  ((((((((((((((((
 4140 28282828 28282828 28282828 28282828  ((((((((((((((((
 4150 28282828 28282828 28282828 28282828  ((((((((((((((((
 4160 28282828 28282828 28282828 28282828  ((((((((((((((((
 4170 28282828 28282828 28282828 28282828  ((((((((((((((((
 4180 2d2d2d20 4e657572 616c204c 61796572  --- Neural Layer
 4190 20546573 74202d2d 2d000000 4e657572   Test ---...Neur
 41a0 6f6e2031 20526573 756c7420 28457870  on 1 Result (Exp
 41b0 65637465 64203936 3030293a 00000000  ected 9600):....
 41c0 4e657572 6f6e2032 20526573 756c7420  Neuron 2 Result 
 41d0 28457870 65637465 64203139 32303029  (Expected 19200)
 41e0 3a000000 00ca9a3b 00e1f505 80969800  :......;........
 41f0 40420f00 a0860100 10270000 e8030000  @B.......'......
 4200 64000000 0a000000 01000000           d...........    

Disassembly of section .text:

00000000 <_start>:
   0:	00008117          	auipc	sp,0x8
   4:	00010113          	mv	sp,sp
   8:	00004297          	auipc	t0,0x4
   c:	20428293          	addi	t0,t0,516 # 420c <__bss_end>
  10:	00004317          	auipc	t1,0x4
  14:	1fc30313          	addi	t1,t1,508 # 420c <__bss_end>

00000018 <bss_clear_loop>:
  18:	0062f863          	bgeu	t0,t1,28 <bss_clear_done>
  1c:	0002a023          	sw	zero,0(t0)
  20:	00428293          	addi	t0,t0,4
  24:	ff5ff06f          	j	18 <bss_clear_loop>

00000028 <bss_clear_done>:
  28:	280000ef          	jal	2a8 <main>

0000002c <hang>:
  2c:	0000006f          	j	2c <hang>

00000030 <putch>:
  30:	fe010113          	addi	sp,sp,-32 # 7fe0 <__bss_end+0x3dd4>
  34:	00812e23          	sw	s0,28(sp)
  38:	02010413          	addi	s0,sp,32
  3c:	00050793          	mv	a5,a0
  40:	fef407a3          	sb	a5,-17(s0)
  44:	0000c7b7          	lui	a5,0xc
  48:	fef44703          	lbu	a4,-17(s0)
  4c:	00e7a023          	sw	a4,0(a5) # c000 <__stack_top+0x4000>
  50:	00000013          	nop
  54:	01c12403          	lw	s0,28(sp)
  58:	02010113          	addi	sp,sp,32
  5c:	00008067          	ret

00000060 <print_str>:
  60:	fe010113          	addi	sp,sp,-32
  64:	00112e23          	sw	ra,28(sp)
  68:	00812c23          	sw	s0,24(sp)
  6c:	02010413          	addi	s0,sp,32
  70:	fea42623          	sw	a0,-20(s0)
  74:	01c0006f          	j	90 <print_str+0x30>
  78:	fec42783          	lw	a5,-20(s0)
  7c:	00178713          	addi	a4,a5,1
  80:	fee42623          	sw	a4,-20(s0)
  84:	0007c783          	lbu	a5,0(a5)
  88:	00078513          	mv	a0,a5
  8c:	fa5ff0ef          	jal	30 <putch>
  90:	fec42783          	lw	a5,-20(s0)
  94:	0007c783          	lbu	a5,0(a5)
  98:	fe0790e3          	bnez	a5,78 <print_str+0x18>
  9c:	00000013          	nop
  a0:	00000013          	nop
  a4:	01c12083          	lw	ra,28(sp)
  a8:	01812403          	lw	s0,24(sp)
  ac:	02010113          	addi	sp,sp,32
  b0:	00008067          	ret

000000b4 <print_dec>:
  b4:	fc010113          	addi	sp,sp,-64
  b8:	02112e23          	sw	ra,60(sp)
  bc:	02812c23          	sw	s0,56(sp)
  c0:	04010413          	addi	s0,sp,64
  c4:	fca42623          	sw	a0,-52(s0)
  c8:	fe042423          	sw	zero,-24(s0)
  cc:	fcc42783          	lw	a5,-52(s0)
  d0:	0007de63          	bgez	a5,ec <print_dec+0x38>
  d4:	02d00513          	li	a0,45
  d8:	f59ff0ef          	jal	30 <putch>
  dc:	fcc42783          	lw	a5,-52(s0)
  e0:	40f007b3          	neg	a5,a5
  e4:	fef42623          	sw	a5,-20(s0)
  e8:	00c0006f          	j	f4 <print_dec+0x40>
  ec:	fcc42783          	lw	a5,-52(s0)
  f0:	fef42623          	sw	a5,-20(s0)
  f4:	fec42783          	lw	a5,-20(s0)
  f8:	00079863          	bnez	a5,108 <print_dec+0x54>
  fc:	03000513          	li	a0,48
 100:	f31ff0ef          	jal	30 <putch>
 104:	0a00006f          	j	1a4 <print_dec+0xf0>
 108:	fe042223          	sw	zero,-28(s0)
 10c:	08c0006f          	j	198 <print_dec+0xe4>
 110:	000047b7          	lui	a5,0x4
 114:	1e478713          	addi	a4,a5,484 # 41e4 <p10.0>
 118:	fe442783          	lw	a5,-28(s0)
 11c:	00279793          	slli	a5,a5,0x2
 120:	00f707b3          	add	a5,a4,a5
 124:	0007a783          	lw	a5,0(a5)
 128:	fcf42e23          	sw	a5,-36(s0)
 12c:	fe042023          	sw	zero,-32(s0)
 130:	0200006f          	j	150 <print_dec+0x9c>
 134:	fec42703          	lw	a4,-20(s0)
 138:	fdc42783          	lw	a5,-36(s0)
 13c:	40f707b3          	sub	a5,a4,a5
 140:	fef42623          	sw	a5,-20(s0)
 144:	fe042783          	lw	a5,-32(s0)
 148:	00178793          	addi	a5,a5,1
 14c:	fef42023          	sw	a5,-32(s0)
 150:	fec42703          	lw	a4,-20(s0)
 154:	fdc42783          	lw	a5,-36(s0)
 158:	fcf77ee3          	bgeu	a4,a5,134 <print_dec+0x80>
 15c:	fe042783          	lw	a5,-32(s0)
 160:	00079663          	bnez	a5,16c <print_dec+0xb8>
 164:	fe842783          	lw	a5,-24(s0)
 168:	02078263          	beqz	a5,18c <print_dec+0xd8>
 16c:	fe042783          	lw	a5,-32(s0)
 170:	0ff7f793          	zext.b	a5,a5
 174:	03078793          	addi	a5,a5,48
 178:	0ff7f793          	zext.b	a5,a5
 17c:	00078513          	mv	a0,a5
 180:	eb1ff0ef          	jal	30 <putch>
 184:	00100793          	li	a5,1
 188:	fef42423          	sw	a5,-24(s0)
 18c:	fe442783          	lw	a5,-28(s0)
 190:	00178793          	addi	a5,a5,1
 194:	fef42223          	sw	a5,-28(s0)
 198:	fe442703          	lw	a4,-28(s0)
 19c:	00900793          	li	a5,9
 1a0:	f6e7d8e3          	bge	a5,a4,110 <print_dec+0x5c>
 1a4:	03c12083          	lw	ra,60(sp)
 1a8:	03812403          	lw	s0,56(sp)
 1ac:	04010113          	addi	sp,sp,64
 1b0:	00008067          	ret

000001b4 <putnl>:
 1b4:	ff010113          	addi	sp,sp,-16
 1b8:	00112623          	sw	ra,12(sp)
 1bc:	00812423          	sw	s0,8(sp)
 1c0:	01010413          	addi	s0,sp,16
 1c4:	00a00513          	li	a0,10
 1c8:	e69ff0ef          	jal	30 <putch>
 1cc:	00000013          	nop
 1d0:	00c12083          	lw	ra,12(sp)
 1d4:	00812403          	lw	s0,8(sp)
 1d8:	01010113          	addi	sp,sp,16
 1dc:	00008067          	ret

000001e0 <multiply_soft>:
 1e0:	fd010113          	addi	sp,sp,-48
 1e4:	02812623          	sw	s0,44(sp)
 1e8:	03010413          	addi	s0,sp,48
 1ec:	fca42e23          	sw	a0,-36(s0)
 1f0:	fcb42c23          	sw	a1,-40(s0)
 1f4:	fe042623          	sw	zero,-20(s0)
 1f8:	fdc42703          	lw	a4,-36(s0)
 1fc:	fd842783          	lw	a5,-40(s0)
 200:	00f747b3          	xor	a5,a4,a5
 204:	01f7d793          	srli	a5,a5,0x1f
 208:	0ff7f793          	zext.b	a5,a5
 20c:	fef42023          	sw	a5,-32(s0)
 210:	fdc42783          	lw	a5,-36(s0)
 214:	41f7d713          	srai	a4,a5,0x1f
 218:	fdc42783          	lw	a5,-36(s0)
 21c:	00f747b3          	xor	a5,a4,a5
 220:	40e787b3          	sub	a5,a5,a4
 224:	fef42423          	sw	a5,-24(s0)
 228:	fd842783          	lw	a5,-40(s0)
 22c:	41f7d713          	srai	a4,a5,0x1f
 230:	fd842783          	lw	a5,-40(s0)
 234:	00f747b3          	xor	a5,a4,a5
 238:	40e787b3          	sub	a5,a5,a4
 23c:	fef42223          	sw	a5,-28(s0)
 240:	0380006f          	j	278 <multiply_soft+0x98>
 244:	fe442783          	lw	a5,-28(s0)
 248:	0017f793          	andi	a5,a5,1
 24c:	00078a63          	beqz	a5,260 <multiply_soft+0x80>
 250:	fec42703          	lw	a4,-20(s0)
 254:	fe842783          	lw	a5,-24(s0)
 258:	00f707b3          	add	a5,a4,a5
 25c:	fef42623          	sw	a5,-20(s0)
 260:	fe842783          	lw	a5,-24(s0)
 264:	00179793          	slli	a5,a5,0x1
 268:	fef42423          	sw	a5,-24(s0)
 26c:	fe442783          	lw	a5,-28(s0)
 270:	0017d793          	srli	a5,a5,0x1
 274:	fef42223          	sw	a5,-28(s0)
 278:	fe442783          	lw	a5,-28(s0)
 27c:	fc0794e3          	bnez	a5,244 <multiply_soft+0x64>
 280:	fe042783          	lw	a5,-32(s0)
 284:	00078863          	beqz	a5,294 <multiply_soft+0xb4>
 288:	fec42783          	lw	a5,-20(s0)
 28c:	40f007b3          	neg	a5,a5
 290:	0080006f          	j	298 <multiply_soft+0xb8>
 294:	fec42783          	lw	a5,-20(s0)
 298:	00078513          	mv	a0,a5
 29c:	02c12403          	lw	s0,44(sp)
 2a0:	03010113          	addi	sp,sp,48
 2a4:	00008067          	ret

000002a8 <main>:
 2a8:	fe010113          	addi	sp,sp,-32
 2ac:	00112e23          	sw	ra,28(sp)
 2b0:	00812c23          	sw	s0,24(sp)
 2b4:	02010413          	addi	s0,sp,32
 2b8:	fe042623          	sw	zero,-20(s0)
 2bc:	fe042423          	sw	zero,-24(s0)
 2c0:	fe042223          	sw	zero,-28(s0)
 2c4:	0a00006f          	j	364 <main+0xbc>
 2c8:	000047b7          	lui	a5,0x4
 2cc:	00078713          	mv	a4,a5
 2d0:	fe442783          	lw	a5,-28(s0)
 2d4:	00f707b3          	add	a5,a4,a5
 2d8:	00078783          	lb	a5,0(a5) # 4000 <weights>
 2dc:	00078693          	mv	a3,a5
 2e0:	000047b7          	lui	a5,0x4
 2e4:	08078713          	addi	a4,a5,128 # 4080 <activation_n1>
 2e8:	fe442783          	lw	a5,-28(s0)
 2ec:	00f707b3          	add	a5,a4,a5
 2f0:	00078783          	lb	a5,0(a5)
 2f4:	00078593          	mv	a1,a5
 2f8:	00068513          	mv	a0,a3
 2fc:	ee5ff0ef          	jal	1e0 <multiply_soft>
 300:	00050713          	mv	a4,a0
 304:	fec42783          	lw	a5,-20(s0)
 308:	00e787b3          	add	a5,a5,a4
 30c:	fef42623          	sw	a5,-20(s0)
 310:	000047b7          	lui	a5,0x4
 314:	00078713          	mv	a4,a5
 318:	fe442783          	lw	a5,-28(s0)
 31c:	00f707b3          	add	a5,a4,a5
 320:	00078783          	lb	a5,0(a5) # 4000 <weights>
 324:	00078693          	mv	a3,a5
 328:	000047b7          	lui	a5,0x4
 32c:	10078713          	addi	a4,a5,256 # 4100 <activation_n2>
 330:	fe442783          	lw	a5,-28(s0)
 334:	00f707b3          	add	a5,a4,a5
 338:	00078783          	lb	a5,0(a5)
 33c:	00078593          	mv	a1,a5
 340:	00068513          	mv	a0,a3
 344:	e9dff0ef          	jal	1e0 <multiply_soft>
 348:	00050713          	mv	a4,a0
 34c:	fe842783          	lw	a5,-24(s0)
 350:	00e787b3          	add	a5,a5,a4
 354:	fef42423          	sw	a5,-24(s0)
 358:	fe442783          	lw	a5,-28(s0)
 35c:	00178793          	addi	a5,a5,1
 360:	fef42223          	sw	a5,-28(s0)
 364:	fe442703          	lw	a4,-28(s0)
 368:	07f00793          	li	a5,127
 36c:	f4e7dee3          	bge	a5,a4,2c8 <main+0x20>
 370:	000047b7          	lui	a5,0x4
 374:	18078513          	addi	a0,a5,384 # 4180 <activation_n2+0x80>
 378:	ce9ff0ef          	jal	60 <print_str>
 37c:	e39ff0ef          	jal	1b4 <putnl>
 380:	000047b7          	lui	a5,0x4
 384:	19c78513          	addi	a0,a5,412 # 419c <activation_n2+0x9c>
 388:	cd9ff0ef          	jal	60 <print_str>
 38c:	e29ff0ef          	jal	1b4 <putnl>
 390:	fec42503          	lw	a0,-20(s0)
 394:	d21ff0ef          	jal	b4 <print_dec>
 398:	e1dff0ef          	jal	1b4 <putnl>
 39c:	000047b7          	lui	a5,0x4
 3a0:	1c078513          	addi	a0,a5,448 # 41c0 <activation_n2+0xc0>
 3a4:	cbdff0ef          	jal	60 <print_str>
 3a8:	e0dff0ef          	jal	1b4 <putnl>
 3ac:	fe842503          	lw	a0,-24(s0)
 3b0:	d05ff0ef          	jal	b4 <print_dec>
 3b4:	e01ff0ef          	jal	1b4 <putnl>
 3b8:	0000006f          	j	3b8 <main+0x110>
